; Function Attrs: nounwind uwtable
define internal ptr @array_array_count(ptr noundef %0, ptr noundef %1) #0 {
  %3 = getelementptr i8, ptr %0, i64 16
  %.val28 = load i64, ptr %3, align 8, !tbaa !40
  %4 = icmp sgt i64 %.val28, 0
  br i1 %4, label %.lr.ph, label %._crit_edge

.lr.ph:                                           ; preds = %2
  %5 = getelementptr inbounds nuw i8, ptr %0, i64 40
  br label %6

6:                                                ; preds = %.lr.ph, %22
  %.01530 = phi i64 [ 0, %.lr.ph ], [ %.11623, %22 ]
  %.01829 = phi i64 [ 0, %.lr.ph ], [ %23, %22 ]
  %7 = load ptr, ptr %5, align 8, !tbaa !76
  %8 = getelementptr inbounds nuw i8, ptr %7, i64 8
  %9 = load ptr, ptr %8, align 8, !tbaa !97
  %10 = tail call ptr %9(ptr noundef nonnull %0, i64 noundef %.01829) #11
  %11 = icmp eq ptr %10, null
  br i1 %11, label %.thread24, label %12

12:                                               ; preds = %6
  %13 = tail call i32 @PyObject_RichCompareBool(ptr noundef nonnull %10, ptr noundef %1, i32 noundef 2) #11
  %14 = load i32, ptr %10, align 8, !tbaa !17
  %.not.i = icmp sgt i32 %14, -1
  br i1 %.not.i, label %15, label %Py_DECREF.exit

15:                                               ; preds = %12
  %16 = add nsw i32 %14, -1
  store i32 %16, ptr %10, align 8, !tbaa !17
  %17 = icmp eq i32 %16, 0
  br i1 %17, label %18, label %Py_DECREF.exit

18:                                               ; preds = %15
  tail call void @_Py_Dealloc(ptr noundef nonnull %10) #11
  br label %Py_DECREF.exit

Py_DECREF.exit:                                   ; preds = %12, %15, %18
  %19 = icmp sgt i32 %13, 0
  br i1 %19, label %.thread, label %21

.thread:                                          ; preds = %Py_DECREF.exit
  %20 = add i64 %.01530, 1
  br label %22

21:                                               ; preds = %Py_DECREF.exit
  %.not = icmp eq i32 %13, 0
  br i1 %.not, label %22, label %.thread24

22:                                               ; preds = %.thread, %21
  %.11623 = phi i64 [ %20, %.thread ], [ %.01530, %21 ]
  %23 = add nuw nsw i64 %.01829, 1
  %.val = load i64, ptr %3, align 8, !tbaa !40
  %24 = icmp slt i64 %23, %.val
  br i1 %24, label %6, label %._crit_edge, !llvm.loop !121

._crit_edge:                                      ; preds = %22, %2
  %.015.lcssa = phi i64 [ 0, %2 ], [ %.11623, %22 ]
  %25 = tail call ptr @PyLong_FromSsize_t(i64 noundef %.015.lcssa) #11
  br label %.thread24

.thread24:                                        ; preds = %6, %21, %._crit_edge
  %.2 = phi ptr [ %25, %._crit_edge ], [ null, %21 ], [ null, %6 ]
  ret ptr %.2
}